; Function Attrs: mustprogress nofree nounwind willreturn memory(write, argmem: read, inaccessiblemem: readwrite) uwtable
define noalias noundef ptr @Inter_ManCreate(ptr noundef %0, ptr noundef readonly captures(none) %1) local_unnamed_addr #0 {
  %calloc = tail call dereferenceable_or_null(160) ptr @calloc(i64 1, i64 160)
  %3 = getelementptr i8, ptr %0, i64 104
  %.val = load i32, ptr %3, align 8, !tbaa !3
  %4 = tail call noalias dereferenceable_or_null(16) ptr @malloc(i64 noundef 16) #12
  %5 = add i32 %.val, -1
  %or.cond.i = icmp ult i32 %5, 15
  %spec.store.select.i = select i1 %or.cond.i, i32 16, i32 %.val
  %6 = getelementptr inbounds nuw i8, ptr %4, i64 4
  store i32 0, ptr %6, align 4, !tbaa !21
  store i32 %spec.store.select.i, ptr %4, align 8, !tbaa !23
  %.not.i = icmp eq i32 %spec.store.select.i, 0
  br i1 %.not.i, label %Vec_IntAlloc.exit, label %7

7:                                                ; preds = %2
  %8 = sext i32 %spec.store.select.i to i64
  %9 = shl nsw i64 %8, 2
  %10 = tail call noalias ptr @malloc(i64 noundef %9) #12
  br label %Vec_IntAlloc.exit

Vec_IntAlloc.exit:                                ; preds = %2, %7
  %11 = phi ptr [ %10, %7 ], [ null, %2 ]
  %12 = getelementptr inbounds nuw i8, ptr %4, i64 8
  store ptr %11, ptr %12, align 8, !tbaa !24
  %13 = getelementptr inbounds nuw i8, ptr %calloc, i64 56
  store ptr %4, ptr %13, align 8, !tbaa !25
  %14 = load i32, ptr %1, align 8, !tbaa !28
  %15 = getelementptr inbounds nuw i8, ptr %calloc, i64 88
  store i32 %14, ptr %15, align 8, !tbaa !30
  %16 = getelementptr inbounds nuw i8, ptr %1, i64 64
  %17 = load i32, ptr %16, align 8, !tbaa !31
  %18 = getelementptr inbounds nuw i8, ptr %calloc, i64 92
  store i32 %17, ptr %18, align 4, !tbaa !32
  %19 = getelementptr inbounds nuw i8, ptr %1, i64 72
  %20 = load ptr, ptr %19, align 8, !tbaa !33
  %21 = getelementptr inbounds nuw i8, ptr %calloc, i64 96
  store ptr %20, ptr %21, align 8, !tbaa !34
  store ptr %0, ptr %calloc, align 8, !tbaa !35
  %22 = getelementptr inbounds nuw i8, ptr %1, i64 60
  %23 = load i32, ptr %22, align 4, !tbaa !36
  %.not = icmp eq i32 %23, 0
  br i1 %.not, label %30, label %24

24:                                               ; preds = %Vec_IntAlloc.exit
  %25 = tail call noalias dereferenceable_or_null(16) ptr @malloc(i64 noundef 16) #12
  %26 = getelementptr inbounds nuw i8, ptr %25, i64 4
  store i32 0, ptr %26, align 4, !tbaa !37
  store i32 100, ptr %25, align 8, !tbaa !39
  %27 = tail call noalias dereferenceable_or_null(800) ptr @malloc(i64 noundef 800) #12
  %28 = getelementptr inbounds nuw i8, ptr %25, i64 8
  store ptr %27, ptr %28, align 8, !tbaa !40
  %29 = getelementptr inbounds nuw i8, ptr %calloc, i64 72
  store ptr %25, ptr %29, align 8, !tbaa !41
  br label %30

30:                                               ; preds = %24, %Vec_IntAlloc.exit
  ret ptr %calloc
}